target datalayout = "e-m:e-p270:32:32-p271:32:32-p272:64:64-i64:64-i128:128-f80:128-n8:16:32:64-S128"
target triple = "x86_64-pc-linux-gnu"

; Function Attrs: mustprogress nounwind uwtable
define hidden noundef i32 @_ZN5ceres8internal14Preconditioner28PreconditionerForZeroEBlocksENS_18PreconditionerTypeE(i32 noundef %0) #1 align 2 {
  %2 = alloca i32, align 4
  %3 = alloca i32, align 4
  store i32 %0, ptr %3, align 4, !tbaa !16
  %4 = load i32, ptr %3, align 4, !tbaa !16
  %5 = icmp eq i32 %4, 2
  br i1 %5, label %12, label %6

6:                                                ; preds = %1
  %7 = load i32, ptr %3, align 4, !tbaa !16
  %8 = icmp eq i32 %7, 4
  br i1 %8, label %12, label %9

9:                                                ; preds = %6
  %10 = load i32, ptr %3, align 4, !tbaa !16
  %11 = icmp eq i32 %10, 5
  br i1 %11, label %12, label %13

12:                                               ; preds = %9, %6, %1
  store i32 1, ptr %2, align 4
  br label %15

13:                                               ; preds = %9
  %14 = load i32, ptr %3, align 4, !tbaa !16
  store i32 %14, ptr %2, align 4
  br label %15

15:                                               ; preds = %13, %12
  %16 = load i32, ptr %2, align 4
  ret i32 %16
}