; Function Attrs: mustprogress nofree norecurse nosync nounwind willreturn memory(none) uwtable
define hidden noundef range(i32 6, 4) i32 @_ZN5ceres8internal14Preconditioner28PreconditionerForZeroEBlocksENS_18PreconditionerTypeE(i32 noundef %0) local_unnamed_addr #3 align 2 {
  switch i32 %0, label %2 [
    i32 5, label %3
    i32 4, label %3
    i32 2, label %3
  ]

2:                                                ; preds = %1
  br label %3

3:                                                ; preds = %1, %1, %1, %2
  %.0 = phi i32 [ %0, %2 ], [ 1, %1 ], [ 1, %1 ], [ 1, %1 ]
  ret i32 %.0
}